target datalayout = "e-m:e-p270:32:32-p271:32:32-p272:64:64-i64:64-i128:128-f80:128-n8:16:32:64-S128"
target triple = "x86_64-pc-linux-gnu"

%struct.AVBSFContext = type { ptr, ptr, ptr, ptr, ptr, %struct.AVRational, %struct.AVRational }
%struct.AVRational = type { i32, i32 }
%struct.TraceHeadersContext = type { ptr, %struct.CodedBitstreamFragment }
%struct.CodedBitstreamFragment = type { ptr, i64, i64, ptr, i32, i32, ptr }
%struct.AVCodecParameters = type { i32, i32, i32, ptr, i32, ptr, i32, i32, i64, i32, i32, i32, i32, i32, i32, %struct.AVRational, %struct.AVRational, i32, i32, i32, i32, i32, i32, i32, %struct.AVChannelLayout, i32, i32, i32, i32, i32, i32 }
%struct.AVChannelLayout = type { i32, i32, %union.anon, ptr }
%union.anon = type { i64 }
%struct.CodedBitstreamContext = type { ptr, ptr, ptr, ptr, i32, i32, i32, ptr, ptr, ptr, ptr, i64 }

@.str.1 = private unnamed_addr constant [11 x i8] c"Extradata\0A\00", align 1

; Function Attrs: nounwind uwtable
define internal i32 @trace_headers_init(ptr noundef %0) #0 {
  %2 = alloca i32, align 4
  %3 = alloca ptr, align 8
  %4 = alloca ptr, align 8
  %5 = alloca i32, align 4
  %6 = alloca i32, align 4
  %7 = alloca ptr, align 8
  store ptr %0, ptr %3, align 8, !tbaa !4
  call void @llvm.lifetime.start.p0(i64 8, ptr %4) #4
  %8 = load ptr, ptr %3, align 8, !tbaa !4
  %9 = getelementptr inbounds nuw %struct.AVBSFContext, ptr %8, i32 0, i32 2
  %10 = load ptr, ptr %9, align 8, !tbaa !9
  store ptr %10, ptr %4, align 8, !tbaa !16
  call void @llvm.lifetime.start.p0(i64 4, ptr %5) #4
  %11 = load ptr, ptr %4, align 8, !tbaa !16
  %12 = getelementptr inbounds nuw %struct.TraceHeadersContext, ptr %11, i32 0, i32 0
  %13 = load ptr, ptr %3, align 8, !tbaa !4
  %14 = getelementptr inbounds nuw %struct.AVBSFContext, ptr %13, i32 0, i32 3
  %15 = load ptr, ptr %14, align 8, !tbaa !18
  %16 = getelementptr inbounds nuw %struct.AVCodecParameters, ptr %15, i32 0, i32 1
  %17 = load i32, ptr %16, align 4, !tbaa !19
  %18 = load ptr, ptr %3, align 8, !tbaa !4
  %19 = call i32 @ff_cbs_init(ptr noundef %12, i32 noundef %17, ptr noundef %18)
  store i32 %19, ptr %5, align 4, !tbaa !25
  %20 = load i32, ptr %5, align 4, !tbaa !25
  %21 = icmp slt i32 %20, 0
  br i1 %21, label %22, label %24

22:                                               ; preds = %1
  %23 = load i32, ptr %5, align 4, !tbaa !25
  store i32 %23, ptr %2, align 4
  store i32 1, ptr %6, align 4
  br label %65

24:                                               ; preds = %1
  %25 = load ptr, ptr %4, align 8, !tbaa !16
  %26 = getelementptr inbounds nuw %struct.TraceHeadersContext, ptr %25, i32 0, i32 0
  %27 = load ptr, ptr %26, align 8, !tbaa !26
  %28 = getelementptr inbounds nuw %struct.CodedBitstreamContext, ptr %27, i32 0, i32 5
  store i32 1, ptr %28, align 4, !tbaa !32
  %29 = load ptr, ptr %4, align 8, !tbaa !16
  %30 = getelementptr inbounds nuw %struct.TraceHeadersContext, ptr %29, i32 0, i32 0
  %31 = load ptr, ptr %30, align 8, !tbaa !26
  %32 = getelementptr inbounds nuw %struct.CodedBitstreamContext, ptr %31, i32 0, i32 6
  store i32 32, ptr %32, align 8, !tbaa !36
  %33 = load ptr, ptr %4, align 8, !tbaa !16
  %34 = getelementptr inbounds nuw %struct.TraceHeadersContext, ptr %33, i32 0, i32 0
  %35 = load ptr, ptr %34, align 8, !tbaa !26
  %36 = load ptr, ptr %4, align 8, !tbaa !16
  %37 = getelementptr inbounds nuw %struct.TraceHeadersContext, ptr %36, i32 0, i32 0
  %38 = load ptr, ptr %37, align 8, !tbaa !26
  %39 = getelementptr inbounds nuw %struct.CodedBitstreamContext, ptr %38, i32 0, i32 7
  store ptr %35, ptr %39, align 8, !tbaa !37
  %40 = load ptr, ptr %4, align 8, !tbaa !16
  %41 = getelementptr inbounds nuw %struct.TraceHeadersContext, ptr %40, i32 0, i32 0
  %42 = load ptr, ptr %41, align 8, !tbaa !26
  %43 = getelementptr inbounds nuw %struct.CodedBitstreamContext, ptr %42, i32 0, i32 8
  store ptr @ff_cbs_trace_read_log, ptr %43, align 8, !tbaa !38
  %44 = load ptr, ptr %3, align 8, !tbaa !4
  %45 = getelementptr inbounds nuw %struct.AVBSFContext, ptr %44, i32 0, i32 3
  %46 = load ptr, ptr %45, align 8, !tbaa !18
  %47 = getelementptr inbounds nuw %struct.AVCodecParameters, ptr %46, i32 0, i32 3
  %48 = load ptr, ptr %47, align 8, !tbaa !39
  %49 = icmp ne ptr %48, null
  br i1 %49, label %50, label %63

50:                                               ; preds = %24
  call void @llvm.lifetime.start.p0(i64 8, ptr %7) #4
  %51 = load ptr, ptr %4, align 8, !tbaa !16
  %52 = getelementptr inbounds nuw %struct.TraceHeadersContext, ptr %51, i32 0, i32 1
  store ptr %52, ptr %7, align 8, !tbaa !40
  %53 = load ptr, ptr %3, align 8, !tbaa !4
  call void (ptr, i32, ptr, ...) @av_log(ptr noundef %53, i32 noundef 32, ptr noundef @.str.1)
  %54 = load ptr, ptr %4, align 8, !tbaa !16
  %55 = getelementptr inbounds nuw %struct.TraceHeadersContext, ptr %54, i32 0, i32 0
  %56 = load ptr, ptr %55, align 8, !tbaa !26
  %57 = load ptr, ptr %7, align 8, !tbaa !40
  %58 = load ptr, ptr %3, align 8, !tbaa !4
  %59 = getelementptr inbounds nuw %struct.AVBSFContext, ptr %58, i32 0, i32 3
  %60 = load ptr, ptr %59, align 8, !tbaa !18
  %61 = call i32 @ff_cbs_read_extradata(ptr noundef %56, ptr noundef %57, ptr noundef %60)
  store i32 %61, ptr %5, align 4, !tbaa !25
  %62 = load ptr, ptr %7, align 8, !tbaa !40
  call void @ff_cbs_fragment_reset(ptr noundef %62)
  call void @llvm.lifetime.end.p0(i64 8, ptr %7) #4
  br label %63

63:                                               ; preds = %50, %24
  %64 = load i32, ptr %5, align 4, !tbaa !25
  store i32 %64, ptr %2, align 4
  store i32 1, ptr %6, align 4
  br label %65

65:                                               ; preds = %63, %22
  call void @llvm.lifetime.end.p0(i64 4, ptr %5) #4
  call void @llvm.lifetime.end.p0(i64 8, ptr %4) #4
  %66 = load i32, ptr %2, align 4
  ret i32 %66
}