; Function Attrs: nounwind uwtable
define internal i32 @trace_headers_init(ptr noundef %0) #0 {
  %2 = getelementptr inbounds nuw i8, ptr %0, i64 16
  %3 = load ptr, ptr %2, align 8, !tbaa !4
  %4 = getelementptr inbounds nuw i8, ptr %0, i64 24
  %5 = load ptr, ptr %4, align 8, !tbaa !14
  %6 = getelementptr inbounds nuw i8, ptr %5, i64 4
  %7 = load i32, ptr %6, align 4, !tbaa !15
  %8 = tail call i32 @ff_cbs_init(ptr noundef %3, i32 noundef %7, ptr noundef %0) #4
  %9 = icmp slt i32 %8, 0
  br i1 %9, label %24, label %10

10:                                               ; preds = %1
  %11 = load ptr, ptr %3, align 8, !tbaa !21
  %12 = getelementptr inbounds nuw i8, ptr %11, i64 36
  store i32 1, ptr %12, align 4, !tbaa !27
  %13 = getelementptr inbounds nuw i8, ptr %11, i64 40
  store i32 32, ptr %13, align 8, !tbaa !31
  %14 = getelementptr inbounds nuw i8, ptr %11, i64 48
  store ptr %11, ptr %14, align 8, !tbaa !32
  %15 = getelementptr inbounds nuw i8, ptr %11, i64 56
  store ptr @ff_cbs_trace_read_log, ptr %15, align 8, !tbaa !33
  %16 = load ptr, ptr %4, align 8, !tbaa !14
  %17 = getelementptr inbounds nuw i8, ptr %16, i64 16
  %18 = load ptr, ptr %17, align 8, !tbaa !34
  %.not = icmp eq ptr %18, null
  br i1 %.not, label %24, label %19

19:                                               ; preds = %10
  %20 = getelementptr inbounds nuw i8, ptr %3, i64 8
  tail call void (ptr, i32, ptr, ...) @av_log(ptr noundef nonnull %0, i32 noundef 32, ptr noundef nonnull @.str.1) #4
  %21 = load ptr, ptr %3, align 8, !tbaa !21
  %22 = load ptr, ptr %4, align 8, !tbaa !14
  %23 = tail call i32 @ff_cbs_read_extradata(ptr noundef %21, ptr noundef nonnull %20, ptr noundef %22) #4
  tail call void @ff_cbs_fragment_reset(ptr noundef nonnull %20) #4
  br label %24

24:                                               ; preds = %10, %19, %1
  %.0 = phi i32 [ %8, %1 ], [ %23, %19 ], [ %8, %10 ]
  ret i32 %.0
}